target datalayout = "e-m:e-p270:32:32-p271:32:32-p272:64:64-i64:64-i128:128-f80:128-n8:16:32:64-S128"
target triple = "x86_64-unknown-linux-gnu"

%class.b2World = type <{ %class.b2BlockAllocator, %class.b2StackAllocator, %class.b2ContactManager, ptr, ptr, i32, i32, %struct.b2Vec2, i8, [7 x i8], ptr, ptr, float, i8, i8, i8, i8, i8, i8, i8, i8, %struct.b2Profile, [4 x i8] }>
%class.b2BlockAllocator = type { ptr, i32, i32, [14 x ptr] }
%class.b2StackAllocator = type <{ [102400 x i8], i32, i32, i32, [4 x i8], [32 x %struct.b2StackEntry], i32, [4 x i8] }>
%struct.b2StackEntry = type { ptr, i32, i8 }
%class.b2ContactManager = type { %class.b2BroadPhase, ptr, i32, ptr, ptr, ptr }
%class.b2BroadPhase = type <{ %class.b2DynamicTree, i32, [4 x i8], ptr, i32, i32, ptr, i32, i32, i32, [4 x i8] }>
%class.b2DynamicTree = type { i32, ptr, i32, i32, i32, i32 }
%struct.b2Vec2 = type { float, float }
%struct.b2Profile = type { float, float, float, float, float, float, float, float }
%class.b2Body = type { i32, i16, i32, %struct.b2Transform, %struct.b2Sweep, %struct.b2Vec2, float, %struct.b2Vec2, float, ptr, ptr, ptr, ptr, i32, ptr, ptr, float, float, float, float, float, float, float, float, %struct.b2BodyUserData }
%struct.b2Transform = type { %struct.b2Vec2, %struct.b2Rot }
%struct.b2Rot = type { float, float }
%struct.b2Sweep = type { %struct.b2Vec2, %struct.b2Vec2, %struct.b2Vec2, float, float, float }
%struct.b2BodyUserData = type { i64 }
%class.b2Fixture = type { float, ptr, ptr, ptr, float, float, float, ptr, i32, %struct.b2Filter, i8, %struct.b2FixtureUserData }
%struct.b2Filter = type { i16, i16, i16 }
%struct.b2FixtureUserData = type { i64 }

; Function Attrs: mustprogress nounwind uwtable
define linkonce_odr hidden void @_ZN16b2ContactManagerD2Ev(ptr noundef nonnull align 8 dereferenceable(120) %this) unnamed_addr #5 comdat align 2 {
entry:
  %this.addr = alloca ptr, align 8
  store ptr %this, ptr %this.addr, align 8
  %this1 = load ptr, ptr %this.addr, align 8
  %m_broadPhase = getelementptr inbounds %class.b2ContactManager, ptr %this1, i32 0, i32 0
  call void @_ZN12b2BroadPhaseD1Ev(ptr noundef nonnull align 8 dereferenceable(76) %m_broadPhase) #9
  ret void
}

; Function Attrs: mustprogress nounwind uwtable
define void @_ZN7b2WorldD2Ev(ptr noundef nonnull align 8 dereferenceable(103284) %this) unnamed_addr #5 align 2 personality ptr @__gxx_personality_v0 {
entry:
  %this.addr = alloca ptr, align 8
  %b = alloca ptr, align 8
  %bNext = alloca ptr, align 8
  %f = alloca ptr, align 8
  %fNext = alloca ptr, align 8
  store ptr %this, ptr %this.addr, align 8
  %this1 = load ptr, ptr %this.addr, align 8
  %m_bodyList = getelementptr inbounds %class.b2World, ptr %this1, i32 0, i32 3
  %0 = load ptr, ptr %m_bodyList, align 8
  store ptr %0, ptr %b, align 8
  br label %while.cond

while.cond:                                       ; preds = %while.end, %entry
  %1 = load ptr, ptr %b, align 8
  %tobool = icmp ne ptr %1, null
  br i1 %tobool, label %while.body, label %while.end6

while.body:                                       ; preds = %while.cond
  %2 = load ptr, ptr %b, align 8
  %m_next = getelementptr inbounds %class.b2Body, ptr %2, i32 0, i32 11
  %3 = load ptr, ptr %m_next, align 8
  store ptr %3, ptr %bNext, align 8
  %4 = load ptr, ptr %b, align 8
  %m_fixtureList = getelementptr inbounds %class.b2Body, ptr %4, i32 0, i32 12
  %5 = load ptr, ptr %m_fixtureList, align 8
  store ptr %5, ptr %f, align 8
  br label %while.cond2

while.cond2:                                      ; preds = %invoke.cont, %while.body
  %6 = load ptr, ptr %f, align 8
  %tobool3 = icmp ne ptr %6, null
  br i1 %tobool3, label %while.body4, label %while.end

while.body4:                                      ; preds = %while.cond2
  %7 = load ptr, ptr %f, align 8
  %m_next5 = getelementptr inbounds %class.b2Fixture, ptr %7, i32 0, i32 1
  %8 = load ptr, ptr %m_next5, align 8
  store ptr %8, ptr %fNext, align 8
  %9 = load ptr, ptr %f, align 8
  %m_proxyCount = getelementptr inbounds %class.b2Fixture, ptr %9, i32 0, i32 8
  store i32 0, ptr %m_proxyCount, align 8
  %10 = load ptr, ptr %f, align 8
  %m_blockAllocator = getelementptr inbounds %class.b2World, ptr %this1, i32 0, i32 0
  invoke void @_ZN9b2Fixture7DestroyEP16b2BlockAllocator(ptr noundef nonnull align 8 dereferenceable(80) %10, ptr noundef %m_blockAllocator)
          to label %invoke.cont unwind label %terminate.lpad

invoke.cont:                                      ; preds = %while.body4
  %11 = load ptr, ptr %fNext, align 8
  store ptr %11, ptr %f, align 8
  br label %while.cond2, !llvm.loop !4

while.end:                                        ; preds = %while.cond2
  %12 = load ptr, ptr %bNext, align 8
  store ptr %12, ptr %b, align 8
  br label %while.cond, !llvm.loop !6

while.end6:                                       ; preds = %while.cond
  %m_contactManager = getelementptr inbounds %class.b2World, ptr %this1, i32 0, i32 2
  call void @_ZN16b2ContactManagerD2Ev(ptr noundef nonnull align 8 dereferenceable(120) %m_contactManager) #9
  %m_stackAllocator = getelementptr inbounds %class.b2World, ptr %this1, i32 0, i32 1
  call void @_ZN16b2StackAllocatorD1Ev(ptr noundef nonnull align 8 dereferenceable(102932) %m_stackAllocator) #9
  %m_blockAllocator7 = getelementptr inbounds %class.b2World, ptr %this1, i32 0, i32 0
  call void @_ZN16b2BlockAllocatorD1Ev(ptr noundef nonnull align 8 dereferenceable(128) %m_blockAllocator7) #9
  ret void

terminate.lpad:                                   ; preds = %while.body4
  %13 = landingpad { ptr, i32 }
          catch ptr null
  %14 = extractvalue { ptr, i32 } %13, 0
  call void @__clang_call_terminate(ptr %14) #10
  unreachable
}