; Function Attrs: mustprogress nounwind uwtable
define void @_ZN7b2WorldD2Ev(ptr noundef nonnull align 8 dereferenceable(103284) %this) unnamed_addr #5 align 2 personality ptr @__gxx_personality_v0 {
entry:
  %m_bodyList = getelementptr inbounds nuw i8, ptr %this, i64 103184
  %0 = load ptr, ptr %m_bodyList, align 8
  %tobool.not6 = icmp eq ptr %0, null
  br i1 %tobool.not6, label %while.end6, label %while.body

while.cond.loopexit:                              ; preds = %while.cond2
  %tobool.not = icmp eq ptr %1, null
  br i1 %tobool.not, label %while.end6, label %while.body, !llvm.loop !4

while.body:                                       ; preds = %entry, %while.cond.loopexit
  %b.07 = phi ptr [ %1, %while.cond.loopexit ], [ %0, %entry ]
  %m_next = getelementptr inbounds nuw i8, ptr %b.07, i64 104
  %1 = load ptr, ptr %m_next, align 8
  %m_fixtureList = getelementptr inbounds nuw i8, ptr %b.07, i64 112
  %2 = load ptr, ptr %m_fixtureList, align 8
  br label %while.cond2

while.cond2:                                      ; preds = %while.body4, %while.body
  %f.0 = phi ptr [ %2, %while.body ], [ %3, %while.body4 ]
  %tobool3.not = icmp eq ptr %f.0, null
  br i1 %tobool3.not, label %while.cond.loopexit, label %while.body4

while.body4:                                      ; preds = %while.cond2
  %m_next5 = getelementptr inbounds nuw i8, ptr %f.0, i64 8
  %3 = load ptr, ptr %m_next5, align 8
  %m_proxyCount = getelementptr inbounds nuw i8, ptr %f.0, i64 56
  store i32 0, ptr %m_proxyCount, align 8
  invoke void @_ZN9b2Fixture7DestroyEP16b2BlockAllocator(ptr noundef nonnull align 8 dereferenceable(80) %f.0, ptr noundef nonnull %this)
          to label %while.cond2 unwind label %terminate.lpad, !llvm.loop !6

while.end6:                                       ; preds = %while.cond.loopexit, %entry
  %m_contactManager = getelementptr inbounds nuw i8, ptr %this, i64 103064
  tail call void @_ZN12b2BroadPhaseD1Ev(ptr noundef nonnull align 8 dereferenceable(120) %m_contactManager) #16
  %m_stackAllocator = getelementptr inbounds nuw i8, ptr %this, i64 128
  tail call void @_ZN16b2StackAllocatorD1Ev(ptr noundef nonnull align 8 dereferenceable(102932) %m_stackAllocator) #16
  tail call void @_ZN16b2BlockAllocatorD1Ev(ptr noundef nonnull align 8 dereferenceable(128) %this) #16
  ret void

terminate.lpad:                                   ; preds = %while.body4
  %4 = landingpad { ptr, i32 }
          catch ptr null
  %5 = extractvalue { ptr, i32 } %4, 0
  tail call void @__clang_call_terminate(ptr %5) #17
  unreachable
}